target datalayout = "e-m:e-p270:32:32-p271:32:32-p272:64:64-i64:64-i128:128-f80:128-n8:16:32:64-S128"
target triple = "x86_64-pc-linux-gnu"

%"class.casadi::MX" = type { %"class.casadi::SharedObject" }
%"class.casadi::SharedObject" = type { ptr }
%"class.casadi::Sparsity" = type { %"class.casadi::SharedObject" }
%"class.casadi::GetNonzerosParamSlice" = type { %"class.casadi::GetNonzerosParam", %"class.casadi::Slice" }
%"class.casadi::GetNonzerosParam" = type { %"class.casadi::MXNode" }
%"class.casadi::MXNode" = type { %"class.casadi::SharedObjectInternal", i64, %"class.std::vector", %"class.casadi::Sparsity" }
%"class.casadi::SharedObjectInternal" = type { ptr, i64, ptr }
%"class.std::vector" = type { %"struct.std::_Vector_base" }
%"struct.std::_Vector_base" = type { %"struct.std::_Vector_base<casadi::MX, std::allocator<casadi::MX>>::_Vector_impl" }
%"struct.std::_Vector_base<casadi::MX, std::allocator<casadi::MX>>::_Vector_impl" = type { %"struct.std::_Vector_base<casadi::MX, std::allocator<casadi::MX>>::_Vector_impl_data" }
%"struct.std::_Vector_base<casadi::MX, std::allocator<casadi::MX>>::_Vector_impl_data" = type { ptr, ptr, ptr }
%"class.casadi::Slice" = type { i64, i64, i64 }

@.str.65 = private unnamed_addr constant [74 x i8] c"vector::_M_range_check: __n (which is %zu) >= this->size() (which is %zu)\00", align 1

; Function Attrs: mustprogress nounwind uwtable
define linkonce_odr hidden noundef i64 @_ZNKSt6vectorIN6casadi2MXESaIS1_EE4sizeEv(ptr noundef nonnull align 8 dereferenceable(24) %0) #7 comdat align 2 {
  %2 = alloca ptr, align 8
  store ptr %0, ptr %2, align 8
  %3 = load ptr, ptr %2, align 8
  %4 = getelementptr inbounds %"struct.std::_Vector_base", ptr %3, i32 0, i32 0
  %5 = getelementptr inbounds %"struct.std::_Vector_base<casadi::MX, std::allocator<casadi::MX>>::_Vector_impl_data", ptr %4, i32 0, i32 1
  %6 = load ptr, ptr %5, align 8
  %7 = getelementptr inbounds %"struct.std::_Vector_base", ptr %3, i32 0, i32 0
  %8 = getelementptr inbounds %"struct.std::_Vector_base<casadi::MX, std::allocator<casadi::MX>>::_Vector_impl_data", ptr %7, i32 0, i32 0
  %9 = load ptr, ptr %8, align 8
  %10 = ptrtoint ptr %6 to i64
  %11 = ptrtoint ptr %9 to i64
  %12 = sub i64 %10, %11
  %13 = sdiv exact i64 %12, 8
  ret i64 %13
}

; Function Attrs: mustprogress nounwind uwtable
define linkonce_odr hidden noundef nonnull align 8 dereferenceable(8) ptr @_ZNK6casadi17SparsityInterfaceINS_2MXEE4selfEv(ptr noundef nonnull align 1 dereferenceable(1) %0) #7 comdat align 2 {
  %2 = alloca ptr, align 8
  store ptr %0, ptr %2, align 8
  %3 = load ptr, ptr %2, align 8
  ret ptr %3
}

; Function Attrs: mustprogress nounwind uwtable
define linkonce_odr hidden noundef nonnull align 8 dereferenceable(8) ptr @_ZNKSt6vectorIN6casadi2MXESaIS1_EEixEm(ptr noundef nonnull align 8 dereferenceable(24) %0, i64 noundef %1) #7 comdat align 2 {
  %3 = alloca ptr, align 8
  %4 = alloca i64, align 8
  store ptr %0, ptr %3, align 8
  store i64 %1, ptr %4, align 8
  %5 = load ptr, ptr %3, align 8
  %6 = getelementptr inbounds %"struct.std::_Vector_base", ptr %5, i32 0, i32 0
  %7 = getelementptr inbounds %"struct.std::_Vector_base<casadi::MX, std::allocator<casadi::MX>>::_Vector_impl_data", ptr %6, i32 0, i32 0
  %8 = load ptr, ptr %7, align 8
  %9 = load i64, ptr %4, align 8
  %10 = getelementptr inbounds %"class.casadi::MX", ptr %8, i64 %9
  ret ptr %10
}

; Function Attrs: mustprogress uwtable
define linkonce_odr hidden void @_ZNKSt6vectorIN6casadi2MXESaIS1_EE14_M_range_checkEm(ptr noundef nonnull align 8 dereferenceable(24) %0, i64 noundef %1) #4 comdat align 2 {
  %3 = alloca ptr, align 8
  %4 = alloca i64, align 8
  store ptr %0, ptr %3, align 8
  store i64 %1, ptr %4, align 8
  %5 = load ptr, ptr %3, align 8
  %6 = load i64, ptr %4, align 8
  %7 = call noundef i64 @_ZNKSt6vectorIN6casadi2MXESaIS1_EE4sizeEv(ptr noundef nonnull align 8 dereferenceable(24) %5) #3
  %8 = icmp uge i64 %6, %7
  br i1 %8, label %9, label %12

9:                                                ; preds = %2
  %10 = load i64, ptr %4, align 8
  %11 = call noundef i64 @_ZNKSt6vectorIN6casadi2MXESaIS1_EE4sizeEv(ptr noundef nonnull align 8 dereferenceable(24) %5) #3
  call void (ptr, ...) @_ZSt24__throw_out_of_range_fmtPKcz(ptr noundef @.str.65, i64 noundef %10, i64 noundef %11) #16
  unreachable

12:                                               ; preds = %2
  ret void
}

; Function Attrs: mustprogress uwtable
define linkonce_odr hidden noundef nonnull align 8 dereferenceable(8) ptr @_ZNK6casadi13GenericMatrixINS_2MXEE8sparsityEv(ptr noundef nonnull align 1 dereferenceable(1) %0) #4 comdat align 2 {
  %2 = alloca ptr, align 8
  store ptr %0, ptr %2, align 8
  %3 = load ptr, ptr %2, align 8
  %4 = call noundef nonnull align 8 dereferenceable(8) ptr @_ZNK6casadi17SparsityInterfaceINS_2MXEE4selfEv(ptr noundef nonnull align 1 dereferenceable(1) %3)
  %5 = call noundef nonnull align 8 dereferenceable(8) ptr @_ZNK6casadi2MX8sparsityEv(ptr noundef nonnull align 8 dereferenceable(8) %4)
  ret ptr %5
}

; Function Attrs: mustprogress uwtable
define linkonce_odr hidden noundef nonnull align 8 dereferenceable(8) ptr @_ZNKSt6vectorIN6casadi2MXESaIS1_EE2atEm(ptr noundef nonnull align 8 dereferenceable(24) %0, i64 noundef %1) #4 comdat align 2 {
  %3 = alloca ptr, align 8
  %4 = alloca i64, align 8
  store ptr %0, ptr %3, align 8
  store i64 %1, ptr %4, align 8
  %5 = load ptr, ptr %3, align 8
  %6 = load i64, ptr %4, align 8
  call void @_ZNKSt6vectorIN6casadi2MXESaIS1_EE14_M_range_checkEm(ptr noundef nonnull align 8 dereferenceable(24) %5, i64 noundef %6)
  %7 = load i64, ptr %4, align 8
  %8 = call noundef nonnull align 8 dereferenceable(8) ptr @_ZNKSt6vectorIN6casadi2MXESaIS1_EEixEm(ptr noundef nonnull align 8 dereferenceable(24) %5, i64 noundef %7) #3
  ret ptr %8
}

; Function Attrs: mustprogress uwtable
define linkonce_odr hidden noundef i64 @_ZNK6casadi13GenericMatrixINS_2MXEE3nnzEv(ptr noundef nonnull align 1 dereferenceable(1) %0) #4 comdat align 2 {
  %2 = alloca ptr, align 8
  store ptr %0, ptr %2, align 8
  %3 = load ptr, ptr %2, align 8
  %4 = call noundef nonnull align 8 dereferenceable(8) ptr @_ZNK6casadi13GenericMatrixINS_2MXEE8sparsityEv(ptr noundef nonnull align 1 dereferenceable(1) %3)
  %5 = call noundef i64 @_ZNK6casadi8Sparsity3nnzEv(ptr noundef nonnull align 8 dereferenceable(8) %4)
  ret i64 %5
}

; Function Attrs: mustprogress uwtable
define linkonce_odr hidden noundef nonnull align 8 dereferenceable(8) ptr @_ZNK6casadi6MXNode3depEx(ptr noundef nonnull align 8 dereferenceable(64) %0, i64 noundef %1) #4 comdat align 2 {
  %3 = alloca ptr, align 8
  %4 = alloca i64, align 8
  store ptr %0, ptr %3, align 8
  store i64 %1, ptr %4, align 8
  %5 = load ptr, ptr %3, align 8
  %6 = getelementptr inbounds %"class.casadi::MXNode", ptr %5, i32 0, i32 2
  %7 = load i64, ptr %4, align 8
  %8 = call noundef nonnull align 8 dereferenceable(8) ptr @_ZNKSt6vectorIN6casadi2MXESaIS1_EE2atEm(ptr noundef nonnull align 8 dereferenceable(24) %6, i64 noundef %7)
  ret ptr %8
}

; Function Attrs: mustprogress uwtable
define noundef i32 @_ZNK6casadi21GetNonzerosParamSlice4evalEPPKdPPdPxS4_(ptr noundef nonnull align 8 dereferenceable(88) %0, ptr noundef %1, ptr noundef %2, ptr noundef %3, ptr noundef %4) unnamed_addr #4 align 2 {
  %6 = alloca ptr, align 8
  %7 = alloca ptr, align 8
  %8 = alloca ptr, align 8
  %9 = alloca ptr, align 8
  %10 = alloca ptr, align 8
  %11 = alloca ptr, align 8
  %12 = alloca ptr, align 8
  %13 = alloca ptr, align 8
  %14 = alloca i64, align 8
  %15 = alloca i64, align 8
  %16 = alloca ptr, align 8
  %17 = alloca i64, align 8
  %18 = alloca i64, align 8
  %19 = alloca ptr, align 8
  %20 = alloca i64, align 8
  store ptr %0, ptr %6, align 8
  store ptr %1, ptr %7, align 8
  store ptr %2, ptr %8, align 8
  store ptr %3, ptr %9, align 8
  store ptr %4, ptr %10, align 8
  %21 = load ptr, ptr %6, align 8
  %22 = load ptr, ptr %7, align 8
  %23 = getelementptr inbounds ptr, ptr %22, i64 0
  %24 = load ptr, ptr %23, align 8
  store ptr %24, ptr %11, align 8
  %25 = load ptr, ptr %7, align 8
  %26 = getelementptr inbounds ptr, ptr %25, i64 1
  %27 = load ptr, ptr %26, align 8
  store ptr %27, ptr %12, align 8
  %28 = load ptr, ptr %8, align 8
  %29 = getelementptr inbounds ptr, ptr %28, i64 0
  %30 = load ptr, ptr %29, align 8
  store ptr %30, ptr %13, align 8
  %31 = call noundef nonnull align 8 dereferenceable(8) ptr @_ZNK6casadi6MXNode3depEx(ptr noundef nonnull align 8 dereferenceable(64) %21, i64 noundef 1)
  %32 = call noundef i64 @_ZNK6casadi13GenericMatrixINS_2MXEE3nnzEv(ptr noundef nonnull align 1 dereferenceable(1) %31)
  store i64 %32, ptr %14, align 8
  %33 = call noundef nonnull align 8 dereferenceable(8) ptr @_ZNK6casadi6MXNode3depEx(ptr noundef nonnull align 8 dereferenceable(64) %21, i64 noundef 0)
  %34 = call noundef i64 @_ZNK6casadi13GenericMatrixINS_2MXEE3nnzEv(ptr noundef nonnull align 1 dereferenceable(1) %33)
  store i64 %34, ptr %15, align 8
  %35 = load ptr, ptr %9, align 8
  store ptr %35, ptr %16, align 8
  %36 = load i64, ptr %14, align 8
  %37 = load ptr, ptr %9, align 8
  %38 = getelementptr inbounds i64, ptr %37, i64 %36
  store ptr %38, ptr %9, align 8
  store i64 0, ptr %17, align 8
  br label %39

39:                                               ; preds = %51, %5
  %40 = load i64, ptr %17, align 8
  %41 = load i64, ptr %14, align 8
  %42 = icmp slt i64 %40, %41
  br i1 %42, label %43, label %54

43:                                               ; preds = %39
  %44 = load ptr, ptr %12, align 8
  %45 = getelementptr inbounds double, ptr %44, i32 1
  store ptr %45, ptr %12, align 8
  %46 = load double, ptr %44, align 8
  %47 = fptosi double %46 to i64
  %48 = load ptr, ptr %16, align 8
  %49 = load i64, ptr %17, align 8
  %50 = getelementptr inbounds i64, ptr %48, i64 %49
  store i64 %47, ptr %50, align 8
  br label %51

51:                                               ; preds = %43
  %52 = load i64, ptr %17, align 8
  %53 = add nsw i64 %52, 1
  store i64 %53, ptr %17, align 8
  br label %39, !llvm.loop !6

54:                                               ; preds = %39
  %55 = getelementptr inbounds %"class.casadi::GetNonzerosParamSlice", ptr %21, i32 0, i32 1
  %56 = getelementptr inbounds %"class.casadi::Slice", ptr %55, i32 0, i32 0
  %57 = load i64, ptr %56, align 8
  store i64 %57, ptr %18, align 8
  br label %58

58:                                               ; preds = %97, %54
  %59 = load i64, ptr %18, align 8
  %60 = getelementptr inbounds %"class.casadi::GetNonzerosParamSlice", ptr %21, i32 0, i32 1
  %61 = getelementptr inbounds %"class.casadi::Slice", ptr %60, i32 0, i32 1
  %62 = load i64, ptr %61, align 8
  %63 = icmp slt i64 %59, %62
  br i1 %63, label %64, label %103

64:                                               ; preds = %58
  %65 = load ptr, ptr %16, align 8
  store ptr %65, ptr %19, align 8
  br label %66

66:                                               ; preds = %93, %64
  %67 = load ptr, ptr %19, align 8
  %68 = load ptr, ptr %16, align 8
  %69 = load i64, ptr %14, align 8
  %70 = getelementptr inbounds i64, ptr %68, i64 %69
  %71 = icmp ne ptr %67, %70
  br i1 %71, label %72, label %96

72:                                               ; preds = %66
  %73 = load i64, ptr %18, align 8
  %74 = load ptr, ptr %19, align 8
  %75 = load i64, ptr %74, align 8
  %76 = add nsw i64 %73, %75
  store i64 %76, ptr %20, align 8
  %77 = load i64, ptr %20, align 8
  %78 = icmp sge i64 %77, 0
  br i1 %78, label %79, label %88

79:                                               ; preds = %72
  %80 = load i64, ptr %20, align 8
  %81 = load i64, ptr %15, align 8
  %82 = icmp slt i64 %80, %81
  br i1 %82, label %83, label %88

83:                                               ; preds = %79
  %84 = load ptr, ptr %11, align 8
  %85 = load i64, ptr %20, align 8
  %86 = getelementptr inbounds double, ptr %84, i64 %85
  %87 = load double, ptr %86, align 8
  br label %89

88:                                               ; preds = %79, %72
  br label %89

89:                                               ; preds = %88, %83
  %90 = phi double [ %87, %83 ], [ 0x7FF8000000000000, %88 ]
  %91 = load ptr, ptr %13, align 8
  %92 = getelementptr inbounds double, ptr %91, i32 1
  store ptr %92, ptr %13, align 8
  store double %90, ptr %91, align 8
  br label %93

93:                                               ; preds = %89
  %94 = load ptr, ptr %19, align 8
  %95 = getelementptr inbounds i64, ptr %94, i32 1
  store ptr %95, ptr %19, align 8
  br label %66, !llvm.loop !7

96:                                               ; preds = %66
  br label %97

97:                                               ; preds = %96
  %98 = getelementptr inbounds %"class.casadi::GetNonzerosParamSlice", ptr %21, i32 0, i32 1
  %99 = getelementptr inbounds %"class.casadi::Slice", ptr %98, i32 0, i32 2
  %100 = load i64, ptr %99, align 8
  %101 = load i64, ptr %18, align 8
  %102 = add nsw i64 %101, %100
  store i64 %102, ptr %18, align 8
  br label %58, !llvm.loop !8

103:                                              ; preds = %58
  ret i32 0
}