; Function Attrs: mustprogress uwtable
define noundef i32 @_ZNK6casadi21GetNonzerosParamSlice4evalEPPKdPPdPxS4_(ptr nocapture noundef nonnull readonly align 8 dereferenceable(88) %0, ptr nocapture noundef readonly %1, ptr nocapture noundef readonly %2, ptr noundef %3, ptr nocapture readnone %4) unnamed_addr #3 align 2 {
  %6 = load ptr, ptr %1, align 8
  %7 = getelementptr inbounds i8, ptr %1, i64 8
  %8 = load ptr, ptr %7, align 8
  %9 = load ptr, ptr %2, align 8
  %10 = getelementptr inbounds i8, ptr %0, i64 32
  %11 = getelementptr inbounds i8, ptr %0, i64 40
  %12 = load ptr, ptr %11, align 8
  %13 = load ptr, ptr %10, align 8
  %14 = ptrtoint ptr %12 to i64
  %15 = ptrtoint ptr %13 to i64
  %16 = sub i64 %14, %15
  %17 = ashr exact i64 %16, 3
  %.not.i.i.i = icmp ugt i64 %17, 1
  br i1 %.not.i.i.i, label %_ZNK6casadi6MXNode3depEx.exit, label %18

18:                                               ; preds = %5
  tail call void (ptr, ...) @_ZSt24__throw_out_of_range_fmtPKcz(ptr noundef nonnull @.str.65, i64 noundef 1, i64 noundef %17) #20
  unreachable

_ZNK6casadi6MXNode3depEx.exit:                    ; preds = %5
  %19 = getelementptr inbounds i8, ptr %13, i64 8
  %20 = tail call noundef nonnull align 8 dereferenceable(8) ptr @_ZNK6casadi2MX8sparsityEv(ptr noundef nonnull align 8 dereferenceable(8) %19)
  %21 = tail call noundef i64 @_ZNK6casadi8Sparsity3nnzEv(ptr noundef nonnull align 8 dereferenceable(8) %20)
  %22 = load ptr, ptr %11, align 8
  %23 = load ptr, ptr %10, align 8
  %.not.i.i.i33.not = icmp eq ptr %22, %23
  br i1 %.not.i.i.i33.not, label %24, label %_ZNK6casadi6MXNode3depEx.exit34

24:                                               ; preds = %_ZNK6casadi6MXNode3depEx.exit
  tail call void (ptr, ...) @_ZSt24__throw_out_of_range_fmtPKcz(ptr noundef nonnull @.str.65, i64 noundef 0, i64 noundef 0) #20
  unreachable

_ZNK6casadi6MXNode3depEx.exit34:                  ; preds = %_ZNK6casadi6MXNode3depEx.exit
  %25 = tail call noundef nonnull align 8 dereferenceable(8) ptr @_ZNK6casadi2MX8sparsityEv(ptr noundef nonnull align 8 dereferenceable(8) %23)
  %26 = tail call noundef i64 @_ZNK6casadi8Sparsity3nnzEv(ptr noundef nonnull align 8 dereferenceable(8) %25)
  %27 = icmp sgt i64 %21, 0
  br i1 %27, label %.lr.ph, label %._crit_edge

.lr.ph:                                           ; preds = %_ZNK6casadi6MXNode3depEx.exit34, %.lr.ph
  %.036 = phi ptr [ %28, %.lr.ph ], [ %8, %_ZNK6casadi6MXNode3depEx.exit34 ]
  %.02935 = phi i64 [ %32, %.lr.ph ], [ 0, %_ZNK6casadi6MXNode3depEx.exit34 ]
  %28 = getelementptr inbounds i8, ptr %.036, i64 8
  %29 = load double, ptr %.036, align 8
  %30 = fptosi double %29 to i64
  %31 = getelementptr inbounds i64, ptr %3, i64 %.02935
  store i64 %30, ptr %31, align 8
  %32 = add nuw nsw i64 %.02935, 1
  %exitcond.not = icmp eq i64 %32, %21
  br i1 %exitcond.not, label %._crit_edge, label %.lr.ph, !llvm.loop !19

._crit_edge:                                      ; preds = %.lr.ph, %_ZNK6casadi6MXNode3depEx.exit34
  %33 = getelementptr inbounds i8, ptr %0, i64 64
  %34 = load i64, ptr %33, align 8
  %35 = getelementptr inbounds i8, ptr %0, i64 72
  %36 = load i64, ptr %35, align 8
  %37 = icmp slt i64 %34, %36
  br i1 %37, label %.preheader.lr.ph, label %._crit_edge44

.preheader.lr.ph:                                 ; preds = %._crit_edge
  %38 = getelementptr inbounds i64, ptr %3, i64 %21
  %.not37 = icmp eq i64 %21, 0
  %39 = getelementptr inbounds i8, ptr %0, i64 80
  br i1 %.not37, label %._crit_edge44, label %.preheader

.preheader:                                       ; preds = %.preheader.lr.ph, %._crit_edge41
  %.02843 = phi i64 [ %53, %._crit_edge41 ], [ %34, %.preheader.lr.ph ]
  %.03042 = phi ptr [ %50, %._crit_edge41 ], [ %9, %.preheader.lr.ph ]
  br label %40

40:                                               ; preds = %.preheader, %48
  %.02739 = phi ptr [ %3, %.preheader ], [ %51, %48 ]
  %.138 = phi ptr [ %.03042, %.preheader ], [ %50, %48 ]
  %41 = load i64, ptr %.02739, align 8
  %42 = add nsw i64 %41, %.02843
  %43 = icmp sgt i64 %42, -1
  %44 = icmp slt i64 %42, %26
  %or.cond = and i1 %43, %44
  br i1 %or.cond, label %45, label %48

45:                                               ; preds = %40
  %46 = getelementptr inbounds double, ptr %6, i64 %42
  %47 = load double, ptr %46, align 8
  br label %48

48:                                               ; preds = %40, %45
  %49 = phi double [ %47, %45 ], [ 0x7FF8000000000000, %40 ]
  %50 = getelementptr inbounds i8, ptr %.138, i64 8
  store double %49, ptr %.138, align 8
  %51 = getelementptr inbounds i8, ptr %.02739, i64 8
  %.not = icmp eq ptr %51, %38
  br i1 %.not, label %._crit_edge41, label %40, !llvm.loop !20

._crit_edge41:                                    ; preds = %48
  %52 = load i64, ptr %39, align 8
  %53 = add nsw i64 %52, %.02843
  %54 = load i64, ptr %35, align 8
  %55 = icmp slt i64 %53, %54
  br i1 %55, label %.preheader, label %._crit_edge44, !llvm.loop !21

._crit_edge44:                                    ; preds = %._crit_edge41, %.preheader.lr.ph, %._crit_edge
  ret i32 0
}